; Function Attrs: cold nounwind optsize uwtable
define internal noundef i32 @allrgb_init(ptr noundef %0) #0 {
  %2 = getelementptr inbounds nuw i8, ptr %0, i64 72
  %3 = load ptr, ptr %2, align 8, !tbaa !4
  %4 = getelementptr inbounds nuw i8, ptr %3, i64 12
  store i32 4096, ptr %4, align 4, !tbaa !37
  %5 = getelementptr inbounds nuw i8, ptr %3, i64 8
  store i32 4096, ptr %5, align 8, !tbaa !36
  %6 = getelementptr inbounds nuw i8, ptr %3, i64 72
  store i32 1, ptr %6, align 8, !tbaa !28
  %7 = getelementptr inbounds nuw i8, ptr %3, i64 88
  store ptr @allrgb_fill_picture, ptr %7, align 8, !tbaa !20
  %8 = tail call i32 @init(ptr noundef %0) #19
  ret i32 0
}